target datalayout = "e-m:e-p270:32:32-p271:32:32-p272:64:64-i64:64-i128:128-f80:128-n8:16:32:64-S128"
target triple = "x86_64-pc-linux-gnu"

%struct.RMStream = type { %struct.AVPacket, i32, i32, i32, i32, i32, i64, i64, i32, i32, i32, i32, i32, [16 x i32], i32 }
%struct.AVPacket = type { ptr, i64, i64, ptr, i32, i32, i32, ptr, i32, i64, i64, ptr, ptr, %struct.AVRational }
%struct.AVRational = type { i32, i32 }
%struct.AVStream = type { ptr, i32, i32, ptr, ptr, %struct.AVRational, i64, i64, i64, i32, i32, %struct.AVRational, ptr, %struct.AVRational, %struct.AVPacket, i32, %struct.AVRational, i32 }
%struct.AVCodecParameters = type { i32, i32, i32, ptr, i32, ptr, i32, i32, i64, i32, i32, i32, i32, i32, i32, %struct.AVRational, %struct.AVRational, i32, i32, i32, i32, i32, i32, i32, %struct.AVChannelLayout, i32, i32, i32, i32, i32, i32 }
%struct.AVChannelLayout = type { i32, i32, %union.anon, ptr }
%union.anon = type { i64 }
%struct.AVFormatContext = type { ptr, ptr, ptr, ptr, ptr, i32, i32, ptr, i32, ptr, i32, ptr, ptr, i64, i64, i64, i32, i32, i32, i64, i64, ptr, i32, i32, ptr, i32, i32, i32, i32, ptr, i64, i32, i32, %struct.AVIOInterruptCB, i32, i32, i32, i32, i64, i32, i32, i32, i32, i32, i32, i32, i32, i32, i32, i32, i32, i64, i32, i32, i32, i32, i32, ptr, ptr, ptr, ptr, i32, ptr, ptr, ptr, ptr, i32, ptr, ptr, i64, ptr, ptr, ptr, i64 }
%struct.AVIOInterruptCB = type { ptr, ptr }
%struct.RMDemuxContext = type { i32, i32, i32, i32, i32, i32, i32 }

@.str.8 = private unnamed_addr constant [30 x i8] c"Assertion %s failed at %s:%d\0A\00", align 1
@.str.9 = private unnamed_addr constant [22 x i8] c"rm->audio_pkt_cnt > 0\00", align 1
@.str.10 = private unnamed_addr constant [20 x i8] c"libavformat/rmdec.c\00", align 1

; Function Attrs: nounwind uwtable
define i32 @ff_rm_retrieve_cache(ptr noundef %0, ptr noundef %1, ptr noundef %2, ptr noundef %3, ptr noundef %4) #0 {
  %6 = alloca i32, align 4
  %7 = alloca ptr, align 8
  %8 = alloca ptr, align 8
  %9 = alloca ptr, align 8
  %10 = alloca ptr, align 8
  %11 = alloca ptr, align 8
  %12 = alloca ptr, align 8
  %13 = alloca i32, align 4
  %14 = alloca i32, align 4
  store ptr %0, ptr %7, align 8, !tbaa !18
  store ptr %1, ptr %8, align 8, !tbaa !20
  store ptr %2, ptr %9, align 8, !tbaa !22
  store ptr %3, ptr %10, align 8, !tbaa !4
  store ptr %4, ptr %11, align 8, !tbaa !85
  call void @llvm.lifetime.start.p0(i64 8, ptr %12) #10
  %15 = load ptr, ptr %7, align 8, !tbaa !18
  %16 = getelementptr inbounds nuw %struct.AVFormatContext, ptr %15, i32 0, i32 3
  %17 = load ptr, ptr %16, align 8, !tbaa !89
  store ptr %17, ptr %12, align 8, !tbaa !90
  call void @llvm.lifetime.start.p0(i64 4, ptr %13) #10
  br label %18

18:                                               ; preds = %5
  %19 = load ptr, ptr %12, align 8, !tbaa !90
  %20 = getelementptr inbounds nuw %struct.RMDemuxContext, ptr %19, i32 0, i32 5
  %21 = load i32, ptr %20, align 4, !tbaa !102
  %22 = icmp sgt i32 %21, 0
  br i1 %22, label %24, label %23

23:                                               ; preds = %18
  call void (ptr, i32, ptr, ...) @av_log(ptr noundef null, i32 noundef 0, ptr noundef @.str.8, ptr noundef @.str.9, ptr noundef @.str.10, i32 noundef 1003)
  call void @abort() #12
  unreachable

24:                                               ; preds = %18
  br label %25

25:                                               ; preds = %24
  br label %26

26:                                               ; preds = %25
  %27 = load ptr, ptr %10, align 8, !tbaa !4
  %28 = getelementptr inbounds nuw %struct.RMStream, ptr %27, i32 0, i32 14
  %29 = load i32, ptr %28, align 4, !tbaa !76
  %30 = icmp eq i32 %29, 1718772342
  br i1 %30, label %36, label %31

31:                                               ; preds = %26
  %32 = load ptr, ptr %10, align 8, !tbaa !4
  %33 = getelementptr inbounds nuw %struct.RMStream, ptr %32, i32 0, i32 14
  %34 = load i32, ptr %33, align 4, !tbaa !76
  %35 = icmp eq i32 %34, 1936876150
  br i1 %35, label %36, label %57

36:                                               ; preds = %31, %26
  %37 = load ptr, ptr %8, align 8, !tbaa !20
  %38 = load ptr, ptr %11, align 8, !tbaa !85
  %39 = load ptr, ptr %10, align 8, !tbaa !4
  %40 = getelementptr inbounds nuw %struct.RMStream, ptr %39, i32 0, i32 13
  %41 = load ptr, ptr %10, align 8, !tbaa !4
  %42 = getelementptr inbounds nuw %struct.RMStream, ptr %41, i32 0, i32 8
  %43 = load i32, ptr %42, align 8, !tbaa !95
  %44 = load ptr, ptr %12, align 8, !tbaa !90
  %45 = getelementptr inbounds nuw %struct.RMDemuxContext, ptr %44, i32 0, i32 5
  %46 = load i32, ptr %45, align 4, !tbaa !102
  %47 = sub nsw i32 %43, %46
  %48 = sext i32 %47 to i64
  %49 = getelementptr inbounds [16 x i32], ptr %40, i64 0, i64 %48
  %50 = load i32, ptr %49, align 4, !tbaa !24
  %51 = call i32 @av_get_packet(ptr noundef %37, ptr noundef %38, i32 noundef %50)
  store i32 %51, ptr %13, align 4, !tbaa !24
  %52 = load i32, ptr %13, align 4, !tbaa !24
  %53 = icmp slt i32 %52, 0
  br i1 %53, label %54, label %56

54:                                               ; preds = %36
  %55 = load i32, ptr %13, align 4, !tbaa !24
  store i32 %55, ptr %6, align 4
  store i32 1, ptr %14, align 4
  br label %136

56:                                               ; preds = %36
  br label %108

57:                                               ; preds = %31
  %58 = load ptr, ptr %11, align 8, !tbaa !85
  %59 = load ptr, ptr %9, align 8, !tbaa !22
  %60 = getelementptr inbounds nuw %struct.AVStream, ptr %59, i32 0, i32 3
  %61 = load ptr, ptr %60, align 8, !tbaa !26
  %62 = getelementptr inbounds nuw %struct.AVCodecParameters, ptr %61, i32 0, i32 26
  %63 = load i32, ptr %62, align 4, !tbaa !79
  %64 = call i32 @av_new_packet(ptr noundef %58, i32 noundef %63)
  store i32 %64, ptr %13, align 4, !tbaa !24
  %65 = load i32, ptr %13, align 4, !tbaa !24
  %66 = icmp slt i32 %65, 0
  br i1 %66, label %67, label %69

67:                                               ; preds = %57
  %68 = load i32, ptr %13, align 4, !tbaa !24
  store i32 %68, ptr %6, align 4
  store i32 1, ptr %14, align 4
  br label %136

69:                                               ; preds = %57
  %70 = load ptr, ptr %11, align 8, !tbaa !85
  %71 = getelementptr inbounds nuw %struct.AVPacket, ptr %70, i32 0, i32 3
  %72 = load ptr, ptr %71, align 8, !tbaa !110
  %73 = load ptr, ptr %10, align 8, !tbaa !4
  %74 = getelementptr inbounds nuw %struct.RMStream, ptr %73, i32 0, i32 0
  %75 = getelementptr inbounds nuw %struct.AVPacket, ptr %74, i32 0, i32 3
  %76 = load ptr, ptr %75, align 8, !tbaa !97
  %77 = load ptr, ptr %9, align 8, !tbaa !22
  %78 = getelementptr inbounds nuw %struct.AVStream, ptr %77, i32 0, i32 3
  %79 = load ptr, ptr %78, align 8, !tbaa !26
  %80 = getelementptr inbounds nuw %struct.AVCodecParameters, ptr %79, i32 0, i32 26
  %81 = load i32, ptr %80, align 4, !tbaa !79
  %82 = load ptr, ptr %10, align 8, !tbaa !4
  %83 = getelementptr inbounds nuw %struct.RMStream, ptr %82, i32 0, i32 10
  %84 = load i32, ptr %83, align 8, !tbaa !78
  %85 = load ptr, ptr %10, align 8, !tbaa !4
  %86 = getelementptr inbounds nuw %struct.RMStream, ptr %85, i32 0, i32 12
  %87 = load i32, ptr %86, align 8, !tbaa !83
  %88 = mul nsw i32 %84, %87
  %89 = load ptr, ptr %9, align 8, !tbaa !22
  %90 = getelementptr inbounds nuw %struct.AVStream, ptr %89, i32 0, i32 3
  %91 = load ptr, ptr %90, align 8, !tbaa !26
  %92 = getelementptr inbounds nuw %struct.AVCodecParameters, ptr %91, i32 0, i32 26
  %93 = load i32, ptr %92, align 4, !tbaa !79
  %94 = sdiv i32 %88, %93
  %95 = load ptr, ptr %12, align 8, !tbaa !90
  %96 = getelementptr inbounds nuw %struct.RMDemuxContext, ptr %95, i32 0, i32 5
  %97 = load i32, ptr %96, align 4, !tbaa !102
  %98 = sub nsw i32 %94, %97
  %99 = mul nsw i32 %81, %98
  %100 = sext i32 %99 to i64
  %101 = getelementptr inbounds i8, ptr %76, i64 %100
  %102 = load ptr, ptr %9, align 8, !tbaa !22
  %103 = getelementptr inbounds nuw %struct.AVStream, ptr %102, i32 0, i32 3
  %104 = load ptr, ptr %103, align 8, !tbaa !26
  %105 = getelementptr inbounds nuw %struct.AVCodecParameters, ptr %104, i32 0, i32 26
  %106 = load i32, ptr %105, align 4, !tbaa !79
  %107 = sext i32 %106 to i64
  call void @llvm.memcpy.p0.p0.i64(ptr align 1 %72, ptr align 1 %101, i64 %107, i1 false)
  br label %108

108:                                              ; preds = %69, %56
  %109 = load ptr, ptr %12, align 8, !tbaa !90
  %110 = getelementptr inbounds nuw %struct.RMDemuxContext, ptr %109, i32 0, i32 5
  %111 = load i32, ptr %110, align 4, !tbaa !102
  %112 = add nsw i32 %111, -1
  store i32 %112, ptr %110, align 4, !tbaa !102
  %113 = load ptr, ptr %10, align 8, !tbaa !4
  %114 = getelementptr inbounds nuw %struct.RMStream, ptr %113, i32 0, i32 7
  %115 = load i64, ptr %114, align 8, !tbaa !96
  %116 = load ptr, ptr %11, align 8, !tbaa !85
  %117 = getelementptr inbounds nuw %struct.AVPacket, ptr %116, i32 0, i32 1
  store i64 %115, ptr %117, align 8, !tbaa !105
  %118 = icmp ne i64 %115, -9223372036854775808
  br i1 %118, label %119, label %124

119:                                              ; preds = %108
  %120 = load ptr, ptr %10, align 8, !tbaa !4
  %121 = getelementptr inbounds nuw %struct.RMStream, ptr %120, i32 0, i32 7
  store i64 -9223372036854775808, ptr %121, align 8, !tbaa !96
  %122 = load ptr, ptr %11, align 8, !tbaa !85
  %123 = getelementptr inbounds nuw %struct.AVPacket, ptr %122, i32 0, i32 6
  store i32 1, ptr %123, align 8, !tbaa !106
  br label %127

124:                                              ; preds = %108
  %125 = load ptr, ptr %11, align 8, !tbaa !85
  %126 = getelementptr inbounds nuw %struct.AVPacket, ptr %125, i32 0, i32 6
  store i32 0, ptr %126, align 8, !tbaa !106
  br label %127

127:                                              ; preds = %124, %119
  %128 = load ptr, ptr %9, align 8, !tbaa !22
  %129 = getelementptr inbounds nuw %struct.AVStream, ptr %128, i32 0, i32 1
  %130 = load i32, ptr %129, align 8, !tbaa !100
  %131 = load ptr, ptr %11, align 8, !tbaa !85
  %132 = getelementptr inbounds nuw %struct.AVPacket, ptr %131, i32 0, i32 5
  store i32 %130, ptr %132, align 4, !tbaa !104
  %133 = load ptr, ptr %12, align 8, !tbaa !90
  %134 = getelementptr inbounds nuw %struct.RMDemuxContext, ptr %133, i32 0, i32 5
  %135 = load i32, ptr %134, align 4, !tbaa !102
  store i32 %135, ptr %6, align 4
  store i32 1, ptr %14, align 4
  br label %136

136:                                              ; preds = %127, %67, %54
  call void @llvm.lifetime.end.p0(i64 4, ptr %13) #10
  call void @llvm.lifetime.end.p0(i64 8, ptr %12) #10
  %137 = load i32, ptr %6, align 4
  ret i32 %137
}