; Function Attrs: nounwind uwtable
define range(i32 -2147483648, 2147483647) i32 @ff_rm_retrieve_cache(ptr noundef readonly captures(none) %0, ptr noundef %1, ptr noundef readonly captures(none) %2, ptr noundef captures(none) %3, ptr noundef %4) local_unnamed_addr #0 {
  %6 = getelementptr inbounds nuw i8, ptr %0, i64 24
  %7 = load ptr, ptr %6, align 8, !tbaa !71
  %8 = getelementptr inbounds nuw i8, ptr %7, i64 20
  %9 = load i32, ptr %8, align 4, !tbaa !90
  %10 = icmp sgt i32 %9, 0
  br i1 %10, label %12, label %11

11:                                               ; preds = %5
  tail call void (ptr, i32, ptr, ...) @av_log(ptr noundef null, i32 noundef 0, ptr noundef nonnull @.str.8, ptr noundef nonnull @.str.9, ptr noundef nonnull @.str.10, i32 noundef 1003) #12
  tail call void @abort() #14
  unreachable

12:                                               ; preds = %5
  %13 = getelementptr inbounds nuw i8, ptr %3, i64 228
  %14 = load i32, ptr %13, align 4, !tbaa !63
  switch i32 %14, label %25 [
    i32 1718772342, label %15
    i32 1936876150, label %15
  ]

15:                                               ; preds = %12, %12
  %16 = getelementptr inbounds nuw i8, ptr %3, i64 164
  %17 = getelementptr inbounds nuw i8, ptr %3, i64 144
  %18 = load i32, ptr %17, align 8, !tbaa !84
  %19 = sub nsw i32 %18, %9
  %20 = sext i32 %19 to i64
  %21 = getelementptr inbounds [16 x i32], ptr %16, i64 0, i64 %20
  %22 = load i32, ptr %21, align 4, !tbaa !61
  %23 = tail call i32 @av_get_packet(ptr noundef %1, ptr noundef %4, i32 noundef %22) #12
  %24 = icmp slt i32 %23, 0
  br i1 %24, label %64, label %52

25:                                               ; preds = %12
  %26 = getelementptr inbounds nuw i8, ptr %2, i64 16
  %27 = load ptr, ptr %26, align 8, !tbaa !16
  %28 = getelementptr inbounds nuw i8, ptr %27, i64 156
  %29 = load i32, ptr %28, align 4, !tbaa !66
  %30 = tail call i32 @av_new_packet(ptr noundef %4, i32 noundef %29) #12
  %31 = icmp slt i32 %30, 0
  br i1 %31, label %64, label %32

32:                                               ; preds = %25
  %33 = getelementptr inbounds nuw i8, ptr %4, i64 24
  %34 = load ptr, ptr %33, align 8, !tbaa !76
  %35 = getelementptr inbounds nuw i8, ptr %3, i64 24
  %36 = load ptr, ptr %35, align 8, !tbaa !82
  %37 = load ptr, ptr %26, align 8, !tbaa !16
  %38 = getelementptr inbounds nuw i8, ptr %37, i64 156
  %39 = load i32, ptr %38, align 4, !tbaa !66
  %40 = getelementptr inbounds nuw i8, ptr %3, i64 152
  %41 = load i32, ptr %40, align 8, !tbaa !65
  %42 = getelementptr inbounds nuw i8, ptr %3, i64 160
  %43 = load i32, ptr %42, align 8, !tbaa !70
  %44 = mul nsw i32 %43, %41
  %45 = sdiv i32 %44, %39
  %46 = load i32, ptr %8, align 4, !tbaa !90
  %47 = sub nsw i32 %45, %46
  %48 = mul nsw i32 %47, %39
  %49 = sext i32 %48 to i64
  %50 = getelementptr inbounds i8, ptr %36, i64 %49
  %51 = sext i32 %39 to i64
  tail call void @llvm.memcpy.p0.p0.i64(ptr align 1 %34, ptr align 1 %50, i64 %51, i1 false)
  br label %52

52:                                               ; preds = %15, %32
  %53 = load i32, ptr %8, align 4, !tbaa !90
  %54 = add nsw i32 %53, -1
  store i32 %54, ptr %8, align 4, !tbaa !90
  %55 = getelementptr inbounds nuw i8, ptr %3, i64 136
  %56 = load i64, ptr %55, align 8, !tbaa !85
  %57 = getelementptr inbounds nuw i8, ptr %4, i64 8
  store i64 %56, ptr %57, align 8, !tbaa !95
  %.not = icmp eq i64 %56, -9223372036854775808
  br i1 %.not, label %59, label %58

58:                                               ; preds = %52
  store i64 -9223372036854775808, ptr %55, align 8, !tbaa !85
  br label %59

59:                                               ; preds = %52, %58
  %.sink = phi i32 [ 1, %58 ], [ 0, %52 ]
  %60 = getelementptr inbounds nuw i8, ptr %4, i64 40
  store i32 %.sink, ptr %60, align 8, !tbaa !96
  %61 = getelementptr inbounds nuw i8, ptr %2, i64 8
  %62 = load i32, ptr %61, align 8, !tbaa !88
  %63 = getelementptr inbounds nuw i8, ptr %4, i64 36
  store i32 %62, ptr %63, align 4, !tbaa !94
  br label %64

64:                                               ; preds = %25, %15, %59
  %.0 = phi i32 [ %54, %59 ], [ %23, %15 ], [ %30, %25 ]
  ret i32 %.0
}